target datalayout = "e-m:e-p270:32:32-p271:32:32-p272:64:64-i64:64-i128:128-f80:128-n8:16:32:64-S128"
target triple = "x86_64-pc-linux-gnu"

; Function Attrs: inlinehint nounwind uwtable
define internal i32 @VP8Clip8(i32 noundef %0) #3 {
  %2 = alloca i32, align 4
  store i32 %0, ptr %2, align 4, !tbaa !8
  %3 = load i32, ptr %2, align 4, !tbaa !8
  %4 = and i32 %3, -16384
  %5 = icmp eq i32 %4, 0
  br i1 %5, label %6, label %9

6:                                                ; preds = %1
  %7 = load i32, ptr %2, align 4, !tbaa !8
  %8 = ashr i32 %7, 6
  br label %13

9:                                                ; preds = %1
  %10 = load i32, ptr %2, align 4, !tbaa !8
  %11 = icmp slt i32 %10, 0
  %12 = select i1 %11, i32 0, i32 255
  br label %13

13:                                               ; preds = %9, %6
  %14 = phi i32 [ %8, %6 ], [ %12, %9 ]
  ret i32 %14
}

; Function Attrs: inlinehint nounwind uwtable
define internal i32 @MultHi(i32 noundef %0, i32 noundef %1) #3 {
  %3 = alloca i32, align 4
  %4 = alloca i32, align 4
  store i32 %0, ptr %3, align 4, !tbaa !8
  store i32 %1, ptr %4, align 4, !tbaa !8
  %5 = load i32, ptr %3, align 4, !tbaa !8
  %6 = load i32, ptr %4, align 4, !tbaa !8
  %7 = mul nsw i32 %5, %6
  %8 = ashr i32 %7, 8
  ret i32 %8
}

; Function Attrs: inlinehint nounwind uwtable
define internal i32 @VP8YUVToR(i32 noundef %0, i32 noundef %1) #3 {
  %3 = alloca i32, align 4
  %4 = alloca i32, align 4
  store i32 %0, ptr %3, align 4, !tbaa !8
  store i32 %1, ptr %4, align 4, !tbaa !8
  %5 = load i32, ptr %3, align 4, !tbaa !8
  %6 = call i32 @MultHi(i32 noundef %5, i32 noundef 19077)
  %7 = load i32, ptr %4, align 4, !tbaa !8
  %8 = call i32 @MultHi(i32 noundef %7, i32 noundef 26149)
  %9 = add nsw i32 %6, %8
  %10 = sub nsw i32 %9, 14234
  %11 = call i32 @VP8Clip8(i32 noundef %10)
  ret i32 %11
}

; Function Attrs: inlinehint nounwind uwtable
define internal i32 @VP8YUVToG(i32 noundef %0, i32 noundef %1, i32 noundef %2) #3 {
  %4 = alloca i32, align 4
  %5 = alloca i32, align 4
  %6 = alloca i32, align 4
  store i32 %0, ptr %4, align 4, !tbaa !8
  store i32 %1, ptr %5, align 4, !tbaa !8
  store i32 %2, ptr %6, align 4, !tbaa !8
  %7 = load i32, ptr %4, align 4, !tbaa !8
  %8 = call i32 @MultHi(i32 noundef %7, i32 noundef 19077)
  %9 = load i32, ptr %5, align 4, !tbaa !8
  %10 = call i32 @MultHi(i32 noundef %9, i32 noundef 6419)
  %11 = sub nsw i32 %8, %10
  %12 = load i32, ptr %6, align 4, !tbaa !8
  %13 = call i32 @MultHi(i32 noundef %12, i32 noundef 13320)
  %14 = sub nsw i32 %11, %13
  %15 = add nsw i32 %14, 8708
  %16 = call i32 @VP8Clip8(i32 noundef %15)
  ret i32 %16
}

; Function Attrs: inlinehint nounwind uwtable
define internal i32 @VP8YUVToB(i32 noundef %0, i32 noundef %1) #3 {
  %3 = alloca i32, align 4
  %4 = alloca i32, align 4
  store i32 %0, ptr %3, align 4, !tbaa !8
  store i32 %1, ptr %4, align 4, !tbaa !8
  %5 = load i32, ptr %3, align 4, !tbaa !8
  %6 = call i32 @MultHi(i32 noundef %5, i32 noundef 19077)
  %7 = load i32, ptr %4, align 4, !tbaa !8
  %8 = call i32 @MultHi(i32 noundef %7, i32 noundef 33050)
  %9 = add nsw i32 %6, %8
  %10 = sub nsw i32 %9, 17685
  %11 = call i32 @VP8Clip8(i32 noundef %10)
  ret i32 %11
}

; Function Attrs: inlinehint nounwind uwtable
define internal void @VP8YuvToBgr(i32 noundef %0, i32 noundef %1, i32 noundef %2, ptr noundef %3) #3 {
  %5 = alloca i32, align 4
  %6 = alloca i32, align 4
  %7 = alloca i32, align 4
  %8 = alloca ptr, align 8
  store i32 %0, ptr %5, align 4, !tbaa !8
  store i32 %1, ptr %6, align 4, !tbaa !8
  store i32 %2, ptr %7, align 4, !tbaa !8
  store ptr %3, ptr %8, align 8, !tbaa !3
  %9 = load i32, ptr %5, align 4, !tbaa !8
  %10 = load i32, ptr %6, align 4, !tbaa !8
  %11 = call i32 @VP8YUVToB(i32 noundef %9, i32 noundef %10)
  %12 = trunc i32 %11 to i8
  %13 = load ptr, ptr %8, align 8, !tbaa !3
  %14 = getelementptr inbounds i8, ptr %13, i64 0
  store i8 %12, ptr %14, align 1, !tbaa !15
  %15 = load i32, ptr %5, align 4, !tbaa !8
  %16 = load i32, ptr %6, align 4, !tbaa !8
  %17 = load i32, ptr %7, align 4, !tbaa !8
  %18 = call i32 @VP8YUVToG(i32 noundef %15, i32 noundef %16, i32 noundef %17)
  %19 = trunc i32 %18 to i8
  %20 = load ptr, ptr %8, align 8, !tbaa !3
  %21 = getelementptr inbounds i8, ptr %20, i64 1
  store i8 %19, ptr %21, align 1, !tbaa !15
  %22 = load i32, ptr %5, align 4, !tbaa !8
  %23 = load i32, ptr %7, align 4, !tbaa !8
  %24 = call i32 @VP8YUVToR(i32 noundef %22, i32 noundef %23)
  %25 = trunc i32 %24 to i8
  %26 = load ptr, ptr %8, align 8, !tbaa !3
  %27 = getelementptr inbounds i8, ptr %26, i64 2
  store i8 %25, ptr %27, align 1, !tbaa !15
  ret void
}

; Function Attrs: inlinehint nounwind uwtable
define internal void @VP8YuvToBgra(i8 noundef zeroext %0, i8 noundef zeroext %1, i8 noundef zeroext %2, ptr noundef %3) #3 {
  %5 = alloca i8, align 1
  %6 = alloca i8, align 1
  %7 = alloca i8, align 1
  %8 = alloca ptr, align 8
  store i8 %0, ptr %5, align 1, !tbaa !15
  store i8 %1, ptr %6, align 1, !tbaa !15
  store i8 %2, ptr %7, align 1, !tbaa !15
  store ptr %3, ptr %8, align 8, !tbaa !3
  %9 = load i8, ptr %5, align 1, !tbaa !15
  %10 = zext i8 %9 to i32
  %11 = load i8, ptr %6, align 1, !tbaa !15
  %12 = zext i8 %11 to i32
  %13 = load i8, ptr %7, align 1, !tbaa !15
  %14 = zext i8 %13 to i32
  %15 = load ptr, ptr %8, align 8, !tbaa !3
  call void @VP8YuvToBgr(i32 noundef %10, i32 noundef %12, i32 noundef %14, ptr noundef %15)
  %16 = load ptr, ptr %8, align 8, !tbaa !3
  %17 = getelementptr inbounds i8, ptr %16, i64 3
  store i8 -1, ptr %17, align 1, !tbaa !15
  ret void
}

; Function Attrs: nounwind uwtable
define internal void @YuvToBgraRow(ptr noalias noundef %0, ptr noalias noundef %1, ptr noalias noundef %2, ptr noalias noundef %3, i32 noundef %4) #0 {
  %6 = alloca ptr, align 8
  %7 = alloca ptr, align 8
  %8 = alloca ptr, align 8
  %9 = alloca ptr, align 8
  %10 = alloca i32, align 4
  %11 = alloca ptr, align 8
  store ptr %0, ptr %6, align 8, !tbaa !3
  store ptr %1, ptr %7, align 8, !tbaa !3
  store ptr %2, ptr %8, align 8, !tbaa !3
  store ptr %3, ptr %9, align 8, !tbaa !3
  store i32 %4, ptr %10, align 4, !tbaa !8
  call void @llvm.lifetime.start.p0(i64 8, ptr %11) #5
  %12 = load ptr, ptr %9, align 8, !tbaa !3
  %13 = load i32, ptr %10, align 4, !tbaa !8
  %14 = and i32 %13, -2
  %15 = mul nsw i32 %14, 4
  %16 = sext i32 %15 to i64
  %17 = getelementptr inbounds i8, ptr %12, i64 %16
  store ptr %17, ptr %11, align 8, !tbaa !3
  br label %18

18:                                               ; preds = %22, %5
  %19 = load ptr, ptr %9, align 8, !tbaa !3
  %20 = load ptr, ptr %11, align 8, !tbaa !3
  %21 = icmp ne ptr %19, %20
  br i1 %21, label %22, label %52

22:                                               ; preds = %18
  %23 = load ptr, ptr %6, align 8, !tbaa !3
  %24 = getelementptr inbounds i8, ptr %23, i64 0
  %25 = load i8, ptr %24, align 1, !tbaa !15
  %26 = load ptr, ptr %7, align 8, !tbaa !3
  %27 = getelementptr inbounds i8, ptr %26, i64 0
  %28 = load i8, ptr %27, align 1, !tbaa !15
  %29 = load ptr, ptr %8, align 8, !tbaa !3
  %30 = getelementptr inbounds i8, ptr %29, i64 0
  %31 = load i8, ptr %30, align 1, !tbaa !15
  %32 = load ptr, ptr %9, align 8, !tbaa !3
  call void @VP8YuvToBgra(i8 noundef zeroext %25, i8 noundef zeroext %28, i8 noundef zeroext %31, ptr noundef %32)
  %33 = load ptr, ptr %6, align 8, !tbaa !3
  %34 = getelementptr inbounds i8, ptr %33, i64 1
  %35 = load i8, ptr %34, align 1, !tbaa !15
  %36 = load ptr, ptr %7, align 8, !tbaa !3
  %37 = getelementptr inbounds i8, ptr %36, i64 0
  %38 = load i8, ptr %37, align 1, !tbaa !15
  %39 = load ptr, ptr %8, align 8, !tbaa !3
  %40 = getelementptr inbounds i8, ptr %39, i64 0
  %41 = load i8, ptr %40, align 1, !tbaa !15
  %42 = load ptr, ptr %9, align 8, !tbaa !3
  %43 = getelementptr inbounds i8, ptr %42, i64 4
  call void @VP8YuvToBgra(i8 noundef zeroext %35, i8 noundef zeroext %38, i8 noundef zeroext %41, ptr noundef %43)
  %44 = load ptr, ptr %6, align 8, !tbaa !3
  %45 = getelementptr inbounds i8, ptr %44, i64 2
  store ptr %45, ptr %6, align 8, !tbaa !3
  %46 = load ptr, ptr %7, align 8, !tbaa !3
  %47 = getelementptr inbounds nuw i8, ptr %46, i32 1
  store ptr %47, ptr %7, align 8, !tbaa !3
  %48 = load ptr, ptr %8, align 8, !tbaa !3
  %49 = getelementptr inbounds nuw i8, ptr %48, i32 1
  store ptr %49, ptr %8, align 8, !tbaa !3
  %50 = load ptr, ptr %9, align 8, !tbaa !3
  %51 = getelementptr inbounds i8, ptr %50, i64 8
  store ptr %51, ptr %9, align 8, !tbaa !3
  br label %18, !llvm.loop !25

52:                                               ; preds = %18
  %53 = load i32, ptr %10, align 4, !tbaa !8
  %54 = and i32 %53, 1
  %55 = icmp ne i32 %54, 0
  br i1 %55, label %56, label %67

56:                                               ; preds = %52
  %57 = load ptr, ptr %6, align 8, !tbaa !3
  %58 = getelementptr inbounds i8, ptr %57, i64 0
  %59 = load i8, ptr %58, align 1, !tbaa !15
  %60 = load ptr, ptr %7, align 8, !tbaa !3
  %61 = getelementptr inbounds i8, ptr %60, i64 0
  %62 = load i8, ptr %61, align 1, !tbaa !15
  %63 = load ptr, ptr %8, align 8, !tbaa !3
  %64 = getelementptr inbounds i8, ptr %63, i64 0
  %65 = load i8, ptr %64, align 1, !tbaa !15
  %66 = load ptr, ptr %9, align 8, !tbaa !3
  call void @VP8YuvToBgra(i8 noundef zeroext %59, i8 noundef zeroext %62, i8 noundef zeroext %65, ptr noundef %66)
  br label %67

67:                                               ; preds = %56, %52
  call void @llvm.lifetime.end.p0(i64 8, ptr %11) #5
  ret void
}