; Function Attrs: nofree norecurse nosync nounwind memory(argmem: readwrite) uwtable
define internal void @YuvToBgraRow(ptr noalias noundef readonly captures(none) %0, ptr noalias noundef readonly captures(none) %1, ptr noalias noundef readonly captures(none) %2, ptr noalias noundef writeonly captures(address) %3, i32 noundef %4) #2 {
  %6 = shl i32 %4, 2
  %7 = and i32 %6, -8
  %8 = sext i32 %7 to i64
  %9 = getelementptr inbounds i8, ptr %3, i64 %8
  %.not26 = icmp eq i32 %7, 0
  br i1 %.not26, label %._crit_edge, label %.lr.ph

.lr.ph:                                           ; preds = %5, %.lr.ph
  %.030 = phi ptr [ %87, %.lr.ph ], [ %0, %5 ]
  %.02029 = phi ptr [ %88, %.lr.ph ], [ %1, %5 ]
  %.02128 = phi ptr [ %90, %.lr.ph ], [ %3, %5 ]
  %.02227 = phi ptr [ %89, %.lr.ph ], [ %2, %5 ]
  %10 = load i8, ptr %.030, align 1, !tbaa !11
  %11 = load i8, ptr %.02029, align 1, !tbaa !11
  %12 = load i8, ptr %.02227, align 1, !tbaa !11
  %13 = zext i8 %10 to i32
  %14 = zext i8 %11 to i32
  %15 = zext i8 %12 to i32
  %16 = mul nuw nsw i32 %13, 19077
  %17 = lshr i32 %16, 8
  %18 = mul nuw nsw i32 %14, 33050
  %19 = lshr i32 %18, 8
  %20 = add nuw nsw i32 %19, %17
  %21 = add nsw i32 %20, -17685
  %22 = icmp ult i32 %21, 16384
  %23 = lshr i32 %21, 6
  %24 = icmp samesign ult i32 %20, 17685
  %25 = select i1 %24, i32 0, i32 255
  %26 = select i1 %22, i32 %23, i32 %25
  %27 = trunc i32 %26 to i8
  store i8 %27, ptr %.02128, align 1, !tbaa !11
  %28 = mul nuw nsw i32 %14, 6419
  %29 = lshr i32 %28, 8
  %30 = mul nuw nsw i32 %15, 13320
  %31 = lshr i32 %30, 8
  %32 = add nuw nsw i32 %31, %29
  %33 = sub nsw i32 %17, %32
  %34 = add nsw i32 %33, 8708
  %35 = icmp ult i32 %34, 16384
  %36 = lshr i32 %34, 6
  %37 = icmp slt i32 %33, -8708
  %38 = select i1 %37, i32 0, i32 255
  %39 = select i1 %35, i32 %36, i32 %38
  %40 = trunc i32 %39 to i8
  %41 = getelementptr inbounds nuw i8, ptr %.02128, i64 1
  store i8 %40, ptr %41, align 1, !tbaa !11
  %42 = mul nuw nsw i32 %15, 26149
  %43 = lshr i32 %42, 8
  %44 = add nuw nsw i32 %43, %17
  %45 = add nsw i32 %44, -14234
  %46 = icmp ult i32 %45, 16384
  %47 = lshr i32 %45, 6
  %48 = icmp samesign ult i32 %44, 14234
  %49 = select i1 %48, i32 0, i32 255
  %50 = select i1 %46, i32 %47, i32 %49
  %51 = trunc i32 %50 to i8
  %52 = getelementptr inbounds nuw i8, ptr %.02128, i64 2
  store i8 %51, ptr %52, align 1, !tbaa !11
  %53 = getelementptr inbounds nuw i8, ptr %.02128, i64 3
  store i8 -1, ptr %53, align 1, !tbaa !11
  %54 = getelementptr inbounds nuw i8, ptr %.030, i64 1
  %55 = load i8, ptr %54, align 1, !tbaa !11
  %56 = getelementptr inbounds nuw i8, ptr %.02128, i64 4
  %57 = zext i8 %55 to i32
  %58 = mul nuw nsw i32 %57, 19077
  %59 = lshr i32 %58, 8
  %60 = add nuw nsw i32 %59, %19
  %61 = add nsw i32 %60, -17685
  %62 = icmp ult i32 %61, 16384
  %63 = lshr i32 %61, 6
  %64 = icmp samesign ult i32 %60, 17685
  %65 = select i1 %64, i32 0, i32 255
  %66 = select i1 %62, i32 %63, i32 %65
  %67 = trunc i32 %66 to i8
  store i8 %67, ptr %56, align 1, !tbaa !11
  %68 = sub nsw i32 %59, %32
  %69 = add nsw i32 %68, 8708
  %70 = icmp ult i32 %69, 16384
  %71 = lshr i32 %69, 6
  %72 = icmp slt i32 %68, -8708
  %73 = select i1 %72, i32 0, i32 255
  %74 = select i1 %70, i32 %71, i32 %73
  %75 = trunc i32 %74 to i8
  %76 = getelementptr inbounds nuw i8, ptr %.02128, i64 5
  store i8 %75, ptr %76, align 1, !tbaa !11
  %77 = add nuw nsw i32 %59, %43
  %78 = add nsw i32 %77, -14234
  %79 = icmp ult i32 %78, 16384
  %80 = lshr i32 %78, 6
  %81 = icmp samesign ult i32 %77, 14234
  %82 = select i1 %81, i32 0, i32 255
  %83 = select i1 %79, i32 %80, i32 %82
  %84 = trunc i32 %83 to i8
  %85 = getelementptr inbounds nuw i8, ptr %.02128, i64 6
  store i8 %84, ptr %85, align 1, !tbaa !11
  %86 = getelementptr inbounds nuw i8, ptr %.02128, i64 7
  store i8 -1, ptr %86, align 1, !tbaa !11
  %87 = getelementptr inbounds nuw i8, ptr %.030, i64 2
  %88 = getelementptr inbounds nuw i8, ptr %.02029, i64 1
  %89 = getelementptr inbounds nuw i8, ptr %.02227, i64 1
  %90 = getelementptr inbounds nuw i8, ptr %.02128, i64 8
  %.not = icmp eq ptr %90, %9
  br i1 %.not, label %._crit_edge, label %.lr.ph, !llvm.loop !19

._crit_edge:                                      ; preds = %.lr.ph, %5
  %.022.lcssa = phi ptr [ %2, %5 ], [ %89, %.lr.ph ]
  %.021.lcssa = phi ptr [ %3, %5 ], [ %9, %.lr.ph ]
  %.020.lcssa = phi ptr [ %1, %5 ], [ %88, %.lr.ph ]
  %.0.lcssa = phi ptr [ %0, %5 ], [ %87, %.lr.ph ]
  %91 = and i32 %4, 1
  %.not23 = icmp eq i32 %91, 0
  br i1 %.not23, label %137, label %92

92:                                               ; preds = %._crit_edge
  %93 = load i8, ptr %.0.lcssa, align 1, !tbaa !11
  %94 = load i8, ptr %.020.lcssa, align 1, !tbaa !11
  %95 = load i8, ptr %.022.lcssa, align 1, !tbaa !11
  %96 = zext i8 %93 to i32
  %97 = zext i8 %94 to i32
  %98 = zext i8 %95 to i32
  %99 = mul nuw nsw i32 %96, 19077
  %100 = lshr i32 %99, 8
  %101 = mul nuw nsw i32 %97, 33050
  %102 = lshr i32 %101, 8
  %103 = add nuw nsw i32 %102, %100
  %104 = add nsw i32 %103, -17685
  %105 = icmp ult i32 %104, 16384
  %106 = lshr i32 %104, 6
  %107 = icmp samesign ult i32 %103, 17685
  %108 = select i1 %107, i32 0, i32 255
  %109 = select i1 %105, i32 %106, i32 %108
  %110 = trunc i32 %109 to i8
  store i8 %110, ptr %.021.lcssa, align 1, !tbaa !11
  %111 = mul nuw nsw i32 %97, 6419
  %112 = lshr i32 %111, 8
  %113 = mul nuw nsw i32 %98, 13320
  %114 = lshr i32 %113, 8
  %115 = add nuw nsw i32 %112, %114
  %116 = sub nsw i32 %100, %115
  %117 = add nsw i32 %116, 8708
  %118 = icmp ult i32 %117, 16384
  %119 = lshr i32 %117, 6
  %120 = icmp slt i32 %116, -8708
  %121 = select i1 %120, i32 0, i32 255
  %122 = select i1 %118, i32 %119, i32 %121
  %123 = trunc i32 %122 to i8
  %124 = getelementptr inbounds nuw i8, ptr %.021.lcssa, i64 1
  store i8 %123, ptr %124, align 1, !tbaa !11
  %125 = mul nuw nsw i32 %98, 26149
  %126 = lshr i32 %125, 8
  %127 = add nuw nsw i32 %126, %100
  %128 = add nsw i32 %127, -14234
  %129 = icmp ult i32 %128, 16384
  %130 = lshr i32 %128, 6
  %131 = icmp samesign ult i32 %127, 14234
  %132 = select i1 %131, i32 0, i32 255
  %133 = select i1 %129, i32 %130, i32 %132
  %134 = trunc i32 %133 to i8
  %135 = getelementptr inbounds nuw i8, ptr %.021.lcssa, i64 2
  store i8 %134, ptr %135, align 1, !tbaa !11
  %136 = getelementptr inbounds nuw i8, ptr %.021.lcssa, i64 3
  store i8 -1, ptr %136, align 1, !tbaa !11
  br label %137

137:                                              ; preds = %92, %._crit_edge
  ret void
}